target datalayout = "e-m:e-p270:32:32-p271:32:32-p272:64:64-i64:64-i128:128-f80:128-n8:16:32:64-S128"
target triple = "x86_64-pc-linux-gnu"

%struct.cbs_st = type { ptr, i64 }

; Function Attrs: nounwind uwtable
define hidden i32 @CBS_mem_equal(ptr noundef %0, ptr noundef %1, i64 noundef %2) #0 {
  %4 = alloca i32, align 4
  %5 = alloca ptr, align 8
  %6 = alloca ptr, align 8
  %7 = alloca i64, align 8
  store ptr %0, ptr %5, align 8, !tbaa !6
  store ptr %1, ptr %6, align 8, !tbaa !11
  store i64 %2, ptr %7, align 8, !tbaa !13
  %8 = load i64, ptr %7, align 8, !tbaa !13
  %9 = load ptr, ptr %5, align 8, !tbaa !6
  %10 = getelementptr inbounds nuw %struct.cbs_st, ptr %9, i32 0, i32 1
  %11 = load i64, ptr %10, align 8, !tbaa !17
  %12 = icmp ne i64 %8, %11
  br i1 %12, label %13, label %14

13:                                               ; preds = %3
  store i32 0, ptr %4, align 4
  br label %23

14:                                               ; preds = %3
  %15 = load ptr, ptr %5, align 8, !tbaa !6
  %16 = getelementptr inbounds nuw %struct.cbs_st, ptr %15, i32 0, i32 0
  %17 = load ptr, ptr %16, align 8, !tbaa !15
  %18 = load ptr, ptr %6, align 8, !tbaa !11
  %19 = load i64, ptr %7, align 8, !tbaa !13
  %20 = call i32 @CRYPTO_memcmp(ptr noundef %17, ptr noundef %18, i64 noundef %19)
  %21 = icmp eq i32 %20, 0
  %22 = zext i1 %21 to i32
  store i32 %22, ptr %4, align 4
  br label %23

23:                                               ; preds = %14, %13
  %24 = load i32, ptr %4, align 4
  ret i32 %24
}