; Function Attrs: nounwind uwtable
define hidden range(i32 0, 2) i32 @CBS_mem_equal(ptr noundef readonly captures(none) %0, ptr noundef %1, i64 noundef %2) local_unnamed_addr #4 {
  %4 = getelementptr inbounds nuw i8, ptr %0, i64 8
  %5 = load i64, ptr %4, align 8, !tbaa !13
  %.not = icmp eq i64 %2, %5
  br i1 %.not, label %6, label %11

6:                                                ; preds = %3
  %7 = load ptr, ptr %0, align 8, !tbaa !6
  %8 = tail call i32 @CRYPTO_memcmp(ptr noundef %7, ptr noundef %1, i64 noundef %2) #15
  %9 = icmp eq i32 %8, 0
  %10 = zext i1 %9 to i32
  br label %11

11:                                               ; preds = %3, %6
  %.0 = phi i32 [ %10, %6 ], [ 0, %3 ]
  ret i32 %.0
}